target datalayout = "e-m:e-p270:32:32-p271:32:32-p272:64:64-i64:64-i128:128-f80:128-n8:16:32:64-S128"
target triple = "x86_64-pc-linux-gnu"

%struct.sview_config_t = type { ptr, ptr, ptr, ptr, ptr, ptr, ptr, i16, i16, i8, i16, i32, i32, i32, i8, i32, i32, i32, i32, [10 x ptr], [10 x %struct.page_opts_t], [10 x i8], i16, i8, i8, i8, i8, i16, i32 }
%struct.page_opts_t = type { ptr, i8, ptr, ptr }
%struct._GdkEventButton = type { i32, ptr, i8, i32, double, double, ptr, i32, i32, ptr, double, double }

@working_sview_config = external global %struct.sview_config_t, align 8
@global_row_count = external global i32, align 4
@last_event_x = external global i32, align 4
@last_event_y = external global i32, align 4

; Function Attrs: nounwind uwtable
define dso_local i32 @row_clicked(ptr noundef %0, ptr noundef %1, ptr noundef %2) #0 {
  %4 = alloca i32, align 4
  %5 = alloca ptr, align 8
  %6 = alloca ptr, align 8
  %7 = alloca ptr, align 8
  %8 = alloca ptr, align 8
  %9 = alloca ptr, align 8
  %10 = alloca ptr, align 8
  %11 = alloca i32, align 4
  %12 = alloca i32, align 4
  %13 = alloca i32, align 4
  store ptr %0, ptr %5, align 8
  store ptr %1, ptr %6, align 8
  store ptr %2, ptr %7, align 8
  call void @llvm.lifetime.start.p0(i64 8, ptr %8) #11
  store ptr null, ptr %8, align 8
  call void @llvm.lifetime.start.p0(i64 8, ptr %9) #11
  store ptr null, ptr %9, align 8
  call void @llvm.lifetime.start.p0(i64 8, ptr %10) #11
  store ptr null, ptr %10, align 8
  call void @llvm.lifetime.start.p0(i64 4, ptr %11) #11
  store i32 0, ptr %11, align 4
  call void @llvm.lifetime.start.p0(i64 4, ptr %12) #11
  store i32 0, ptr %12, align 4
  %14 = load ptr, ptr %5, align 8
  %15 = load ptr, ptr %6, align 8
  %16 = getelementptr inbounds nuw %struct._GdkEventButton, ptr %15, i32 0, i32 4
  %17 = load double, ptr %16, align 8
  %18 = fptosi double %17 to i32
  %19 = load ptr, ptr %6, align 8
  %20 = getelementptr inbounds nuw %struct._GdkEventButton, ptr %19, i32 0, i32 5
  %21 = load double, ptr %20, align 8
  %22 = fptosi double %21 to i32
  %23 = call i32 @gtk_tree_view_get_path_at_pos(ptr noundef %14, i32 noundef %18, i32 noundef %22, ptr noundef %8, ptr noundef null, ptr noundef null, ptr noundef null)
  %24 = icmp ne i32 %23, 0
  br i1 %24, label %41, label %25

25:                                               ; preds = %3
  %26 = load ptr, ptr %5, align 8
  %27 = call ptr @gtk_tree_view_get_selection(ptr noundef %26)
  store ptr %27, ptr %10, align 8
  %28 = load ptr, ptr %10, align 8
  %29 = call i32 @gtk_tree_selection_count_selected_rows(ptr noundef %28)
  %30 = icmp ne i32 %29, 0
  br i1 %30, label %31, label %40

31:                                               ; preds = %25
  %32 = load ptr, ptr %6, align 8
  %33 = getelementptr inbounds nuw %struct._GdkEventButton, ptr %32, i32 0, i32 7
  %34 = load i32, ptr %33, align 8
  %35 = and i32 %34, 4
  %36 = icmp ne i32 %35, 0
  br i1 %36, label %39, label %37

37:                                               ; preds = %31
  %38 = load ptr, ptr %10, align 8
  call void @gtk_tree_selection_unselect_all(ptr noundef %38)
  br label %39

39:                                               ; preds = %37, %31
  call void @refresh_main(ptr noundef null, ptr noundef null)
  store i32 1, ptr %4, align 4
  store i32 1, ptr %13, align 4
  br label %188

40:                                               ; preds = %25
  store i32 0, ptr %4, align 4
  store i32 1, ptr %13, align 4
  br label %188

41:                                               ; preds = %3
  %42 = load ptr, ptr %5, align 8
  %43 = call ptr @gtk_tree_view_get_selection(ptr noundef %42)
  store ptr %43, ptr %10, align 8
  %44 = load ptr, ptr %10, align 8
  %45 = call i32 @gtk_tree_selection_count_selected_rows(ptr noundef %44)
  store i32 %45, ptr @global_row_count, align 4
  %46 = load ptr, ptr %10, align 8
  %47 = load ptr, ptr %8, align 8
  %48 = call i32 @gtk_tree_selection_path_is_selected(ptr noundef %46, ptr noundef %47)
  store i32 %48, ptr %12, align 4
  %49 = load ptr, ptr %6, align 8
  %50 = getelementptr inbounds nuw %struct._GdkEventButton, ptr %49, i32 0, i32 8
  %51 = load i32, ptr %50, align 4
  %52 = icmp ne i32 %51, 3
  br i1 %52, label %53, label %87

53:                                               ; preds = %41
  %54 = load ptr, ptr %6, align 8
  %55 = getelementptr inbounds nuw %struct._GdkEventButton, ptr %54, i32 0, i32 7
  %56 = load i32, ptr %55, align 8
  %57 = and i32 %56, 1
  %58 = icmp ne i32 %57, 0
  br i1 %58, label %59, label %86

59:                                               ; preds = %53
  %60 = load i32, ptr @last_event_x, align 4
  %61 = icmp ne i32 %60, 0
  br i1 %61, label %62, label %78

62:                                               ; preds = %59
  %63 = load ptr, ptr %5, align 8
  %64 = load i32, ptr @last_event_x, align 4
  %65 = load i32, ptr @last_event_y, align 4
  %66 = call i32 @gtk_tree_view_get_path_at_pos(ptr noundef %63, i32 noundef %64, i32 noundef %65, ptr noundef %9, ptr noundef null, ptr noundef null, ptr noundef null)
  %67 = icmp ne i32 %66, 0
  br i1 %67, label %68, label %77

68:                                               ; preds = %62
  %69 = load ptr, ptr %9, align 8
  %70 = icmp ne ptr %69, null
  br i1 %70, label %71, label %76

71:                                               ; preds = %68
  %72 = load ptr, ptr %10, align 8
  %73 = load ptr, ptr %9, align 8
  %74 = load ptr, ptr %8, align 8
  call void @gtk_tree_selection_select_range(ptr noundef %72, ptr noundef %73, ptr noundef %74)
  %75 = load ptr, ptr %9, align 8
  call void @gtk_tree_path_free(ptr noundef %75)
  br label %76

76:                                               ; preds = %71, %68
  br label %77

77:                                               ; preds = %76, %62
  br label %85

78:                                               ; preds = %59
  %79 = load ptr, ptr %8, align 8
  %80 = icmp ne ptr %79, null
  br i1 %80, label %81, label %84

81:                                               ; preds = %78
  %82 = load ptr, ptr %10, align 8
  %83 = load ptr, ptr %8, align 8
  call void @gtk_tree_selection_select_path(ptr noundef %82, ptr noundef %83)
  br label %84

84:                                               ; preds = %81, %78
  br label %85

85:                                               ; preds = %84, %77
  br label %86

86:                                               ; preds = %85, %53
  br label %87

87:                                               ; preds = %86, %41
  %88 = load ptr, ptr %6, align 8
  %89 = getelementptr inbounds nuw %struct._GdkEventButton, ptr %88, i32 0, i32 4
  %90 = load double, ptr %89, align 8
  %91 = fptosi double %90 to i32
  store i32 %91, ptr @last_event_x, align 4
  %92 = load ptr, ptr %6, align 8
  %93 = getelementptr inbounds nuw %struct._GdkEventButton, ptr %92, i32 0, i32 5
  %94 = load double, ptr %93, align 8
  %95 = fptosi double %94 to i32
  store i32 %95, ptr @last_event_y, align 4
  %96 = load ptr, ptr %6, align 8
  %97 = getelementptr inbounds nuw %struct._GdkEventButton, ptr %96, i32 0, i32 4
  %98 = load double, ptr %97, align 8
  %99 = fcmp ole double %98, 2.800000e+01
  br i1 %99, label %100, label %101

100:                                              ; preds = %87
  store i32 0, ptr %11, align 4
  br label %178

101:                                              ; preds = %87
  %102 = load ptr, ptr %6, align 8
  %103 = getelementptr inbounds nuw %struct._GdkEventButton, ptr %102, i32 0, i32 8
  %104 = load i32, ptr %103, align 4
  %105 = icmp eq i32 %104, 1
  br i1 %105, label %106, label %126

106:                                              ; preds = %101
  %107 = load ptr, ptr %6, align 8
  %108 = getelementptr inbounds nuw %struct._GdkEventButton, ptr %107, i32 0, i32 7
  %109 = load i32, ptr %108, align 8
  %110 = and i32 %109, 4
  %111 = icmp ne i32 %110, 0
  br i1 %111, label %120, label %112

112:                                              ; preds = %106
  %113 = load ptr, ptr %6, align 8
  %114 = getelementptr inbounds nuw %struct._GdkEventButton, ptr %113, i32 0, i32 7
  %115 = load i32, ptr %114, align 8
  %116 = and i32 %115, 1
  %117 = icmp ne i32 %116, 0
  br i1 %117, label %120, label %118

118:                                              ; preds = %112
  %119 = load ptr, ptr %10, align 8
  call void @gtk_tree_selection_unselect_all(ptr noundef %119)
  br label %120

120:                                              ; preds = %118, %112, %106
  %121 = load ptr, ptr %5, align 8
  %122 = load ptr, ptr %8, align 8
  %123 = load ptr, ptr %7, align 8
  %124 = load ptr, ptr %6, align 8
  %125 = call i32 @left_button_pressed(ptr noundef %121, ptr noundef %122, ptr noundef %123, ptr noundef %124)
  store i32 %125, ptr %11, align 4
  br label %177

126:                                              ; preds = %101
  %127 = load ptr, ptr %6, align 8
  %128 = getelementptr inbounds nuw %struct._GdkEventButton, ptr %127, i32 0, i32 8
  %129 = load i32, ptr %128, align 4
  %130 = icmp eq i32 %129, 3
  br i1 %130, label %131, label %171

131:                                              ; preds = %126
  %132 = load i32, ptr %12, align 4
  %133 = icmp ne i32 %132, 0
  br i1 %133, label %150, label %134

134:                                              ; preds = %131
  %135 = load ptr, ptr %6, align 8
  %136 = getelementptr inbounds nuw %struct._GdkEventButton, ptr %135, i32 0, i32 7
  %137 = load i32, ptr %136, align 8
  %138 = and i32 %137, 4
  %139 = icmp ne i32 %138, 0
  br i1 %139, label %142, label %140

140:                                              ; preds = %134
  %141 = load ptr, ptr %10, align 8
  call void @gtk_tree_selection_unselect_all(ptr noundef %141)
  br label %149

142:                                              ; preds = %134
  %143 = load ptr, ptr %8, align 8
  %144 = icmp ne ptr %143, null
  br i1 %144, label %145, label %148

145:                                              ; preds = %142
  %146 = load ptr, ptr %10, align 8
  %147 = load ptr, ptr %8, align 8
  call void @gtk_tree_selection_select_path(ptr noundef %146, ptr noundef %147)
  br label %148

148:                                              ; preds = %145, %142
  br label %149

149:                                              ; preds = %148, %140
  br label %150

150:                                              ; preds = %149, %131
  %151 = load ptr, ptr %10, align 8
  %152 = call i32 @gtk_tree_selection_count_selected_rows(ptr noundef %151)
  store i32 %152, ptr @global_row_count, align 4
  %153 = load ptr, ptr %6, align 8
  %154 = getelementptr inbounds nuw %struct._GdkEventButton, ptr %153, i32 0, i32 7
  %155 = load i32, ptr %154, align 8
  %156 = and i32 %155, 4
  %157 = icmp ne i32 %156, 0
  br i1 %157, label %170, label %158

158:                                              ; preds = %150
  %159 = load ptr, ptr %6, align 8
  %160 = getelementptr inbounds nuw %struct._GdkEventButton, ptr %159, i32 0, i32 7
  %161 = load i32, ptr %160, align 8
  %162 = and i32 %161, 1
  %163 = icmp ne i32 %162, 0
  br i1 %163, label %170, label %164

164:                                              ; preds = %158
  %165 = load ptr, ptr %5, align 8
  %166 = load ptr, ptr %8, align 8
  %167 = load ptr, ptr %6, align 8
  %168 = load ptr, ptr %7, align 8
  %169 = call i32 @right_button_pressed(ptr noundef %165, ptr noundef %166, ptr noundef %167, ptr noundef %168, i32 noundef 2)
  br label %170

170:                                              ; preds = %164, %158, %150
  store i32 1, ptr %11, align 4
  br label %176

171:                                              ; preds = %126
  %172 = load i8, ptr getelementptr inbounds nuw (%struct.sview_config_t, ptr @working_sview_config, i32 0, i32 9), align 4, !range !23, !noundef !24
  %173 = trunc i8 %172 to i1
  br i1 %173, label %175, label %174

174:                                              ; preds = %171
  store i32 1, ptr %11, align 4
  br label %175

175:                                              ; preds = %174, %171
  br label %176

176:                                              ; preds = %175, %170
  br label %177

177:                                              ; preds = %176, %120
  br label %178

178:                                              ; preds = %177, %100
  %179 = load ptr, ptr %8, align 8
  call void @gtk_tree_path_free(ptr noundef %179)
  %180 = load ptr, ptr %6, align 8
  %181 = getelementptr inbounds nuw %struct._GdkEventButton, ptr %180, i32 0, i32 7
  %182 = load i32, ptr %181, align 8
  %183 = and i32 %182, 4
  %184 = icmp ne i32 %183, 0
  br i1 %184, label %185, label %186

185:                                              ; preds = %178
  call void @refresh_main(ptr noundef null, ptr noundef null)
  store i32 0, ptr %4, align 4
  store i32 1, ptr %13, align 4
  br label %188

186:                                              ; preds = %178
  %187 = load i32, ptr %11, align 4
  store i32 %187, ptr %4, align 4
  store i32 1, ptr %13, align 4
  br label %188

188:                                              ; preds = %186, %185, %40, %39
  call void @llvm.lifetime.end.p0(i64 4, ptr %12) #11
  call void @llvm.lifetime.end.p0(i64 4, ptr %11) #11
  call void @llvm.lifetime.end.p0(i64 8, ptr %10) #11
  call void @llvm.lifetime.end.p0(i64 8, ptr %9) #11
  call void @llvm.lifetime.end.p0(i64 8, ptr %8) #11
  %189 = load i32, ptr %4, align 4
  ret i32 %189
}