; Function Attrs: nounwind uwtable
define dso_local range(i32 0, 2) i32 @row_clicked(ptr noundef %0, ptr noundef %1, ptr noundef readonly captures(none) %2) #2 {
  %4 = alloca ptr, align 8
  %5 = alloca ptr, align 8
  call void @llvm.lifetime.start.p0(i64 8, ptr nonnull %4) #16
  store ptr null, ptr %4, align 8
  call void @llvm.lifetime.start.p0(i64 8, ptr nonnull %5) #16
  store ptr null, ptr %5, align 8
  %6 = getelementptr inbounds nuw i8, ptr %1, i64 24
  %7 = load double, ptr %6, align 8
  %8 = fptosi double %7 to i32
  %9 = getelementptr inbounds nuw i8, ptr %1, i64 32
  %10 = load double, ptr %9, align 8
  %11 = fptosi double %10 to i32
  %12 = call i32 @gtk_tree_view_get_path_at_pos(ptr noundef %0, i32 noundef %8, i32 noundef %11, ptr noundef nonnull %4, ptr noundef null, ptr noundef null, ptr noundef null) #16
  %.not = icmp eq i32 %12, 0
  %13 = call ptr @gtk_tree_view_get_selection(ptr noundef %0) #16
  %14 = call i32 @gtk_tree_selection_count_selected_rows(ptr noundef %13) #16
  br i1 %.not, label %15, label %21

15:                                               ; preds = %3
  %.not45 = icmp eq i32 %14, 0
  br i1 %.not45, label %85, label %16

16:                                               ; preds = %15
  %17 = getelementptr inbounds nuw i8, ptr %1, i64 48
  %18 = load i32, ptr %17, align 8
  %19 = and i32 %18, 4
  %.not46 = icmp eq i32 %19, 0
  br i1 %.not46, label %20, label %.sink.split

20:                                               ; preds = %16
  call void @gtk_tree_selection_unselect_all(ptr noundef %13) #16
  br label %.sink.split

21:                                               ; preds = %3
  store i32 %14, ptr @global_row_count, align 4
  %22 = load ptr, ptr %4, align 8
  %23 = call i32 @gtk_tree_selection_path_is_selected(ptr noundef %13, ptr noundef %22) #16
  %24 = getelementptr inbounds nuw i8, ptr %1, i64 52
  %25 = load i32, ptr %24, align 4
  %.not47 = icmp eq i32 %25, 3
  br i1 %.not47, label %44, label %26

26:                                               ; preds = %21
  %27 = getelementptr inbounds nuw i8, ptr %1, i64 48
  %28 = load i32, ptr %27, align 8
  %29 = and i32 %28, 1
  %.not48 = icmp eq i32 %29, 0
  br i1 %.not48, label %44, label %30

30:                                               ; preds = %26
  %31 = load i32, ptr @last_event_x, align 4
  %.not49 = icmp eq i32 %31, 0
  br i1 %.not49, label %41, label %32

32:                                               ; preds = %30
  %33 = load i32, ptr @last_event_y, align 4
  %34 = call i32 @gtk_tree_view_get_path_at_pos(ptr noundef %0, i32 noundef %31, i32 noundef %33, ptr noundef nonnull %5, ptr noundef null, ptr noundef null, ptr noundef null) #16
  %35 = icmp ne i32 %34, 0
  %36 = load ptr, ptr %5, align 8
  %37 = icmp ne ptr %36, null
  %or.cond = select i1 %35, i1 %37, i1 false
  br i1 %or.cond, label %38, label %44

38:                                               ; preds = %32
  %39 = load ptr, ptr %4, align 8
  call void @gtk_tree_selection_select_range(ptr noundef %13, ptr noundef nonnull %36, ptr noundef %39) #16
  %40 = load ptr, ptr %5, align 8
  call void @gtk_tree_path_free(ptr noundef %40) #16
  br label %44

41:                                               ; preds = %30
  %42 = load ptr, ptr %4, align 8
  %.not50 = icmp eq ptr %42, null
  br i1 %.not50, label %44, label %43

43:                                               ; preds = %41
  call void @gtk_tree_selection_select_path(ptr noundef %13, ptr noundef nonnull %42) #16
  br label %44

44:                                               ; preds = %26, %41, %43, %32, %38, %21
  %45 = load double, ptr %6, align 8
  %46 = fptosi double %45 to i32
  store i32 %46, ptr @last_event_x, align 4
  %47 = load double, ptr %9, align 8
  %48 = fptosi double %47 to i32
  store i32 %48, ptr @last_event_y, align 4
  %49 = fcmp ugt double %45, 2.800000e+01
  br i1 %49, label %50, label %80

50:                                               ; preds = %44
  %51 = load i32, ptr %24, align 4
  switch i32 %51, label %77 [
    i32 1, label %52
    i32 3, label %60
  ]

52:                                               ; preds = %50
  %53 = getelementptr inbounds nuw i8, ptr %1, i64 48
  %54 = load i32, ptr %53, align 8
  %55 = and i32 %54, 5
  %or.cond59 = icmp eq i32 %55, 0
  br i1 %or.cond59, label %56, label %57

56:                                               ; preds = %52
  call void @gtk_tree_selection_unselect_all(ptr noundef %13) #16
  br label %57

57:                                               ; preds = %56, %52
  %58 = load ptr, ptr %4, align 8
  %59 = call i32 @left_button_pressed(ptr noundef %0, ptr noundef %58, ptr noundef %2, ptr noundef nonnull %1)
  br label %80

60:                                               ; preds = %50
  %.not51 = icmp eq i32 %23, 0
  br i1 %.not51, label %61, label %69

61:                                               ; preds = %60
  %62 = getelementptr inbounds nuw i8, ptr %1, i64 48
  %63 = load i32, ptr %62, align 8
  %64 = and i32 %63, 4
  %.not52 = icmp eq i32 %64, 0
  br i1 %.not52, label %65, label %66

65:                                               ; preds = %61
  call void @gtk_tree_selection_unselect_all(ptr noundef %13) #16
  br label %69

66:                                               ; preds = %61
  %67 = load ptr, ptr %4, align 8
  %.not53 = icmp eq ptr %67, null
  br i1 %.not53, label %69, label %68

68:                                               ; preds = %66
  call void @gtk_tree_selection_select_path(ptr noundef %13, ptr noundef nonnull %67) #16
  br label %69

69:                                               ; preds = %65, %68, %66, %60
  %70 = call i32 @gtk_tree_selection_count_selected_rows(ptr noundef %13) #16
  store i32 %70, ptr @global_row_count, align 4
  %71 = getelementptr inbounds nuw i8, ptr %1, i64 48
  %72 = load i32, ptr %71, align 8
  %73 = and i32 %72, 5
  %or.cond60 = icmp eq i32 %73, 0
  br i1 %or.cond60, label %74, label %80

74:                                               ; preds = %69
  %75 = load ptr, ptr %4, align 8
  %76 = call i32 @right_button_pressed(ptr noundef %0, ptr noundef %75, ptr noundef nonnull %1, ptr noundef %2, i32 noundef 2)
  br label %80

77:                                               ; preds = %50
  %78 = load i8, ptr getelementptr inbounds nuw (i8, ptr @working_sview_config, i64 60), align 4, !range !21, !noundef !22
  %79 = xor i8 %78, 1
  %not. = zext nneg i8 %79 to i32
  br label %80

80:                                               ; preds = %77, %69, %74, %44, %57
  %.0 = phi i32 [ %59, %57 ], [ 0, %44 ], [ 1, %74 ], [ 1, %69 ], [ %not., %77 ]
  %81 = load ptr, ptr %4, align 8
  call void @gtk_tree_path_free(ptr noundef %81) #16
  %82 = getelementptr inbounds nuw i8, ptr %1, i64 48
  %83 = load i32, ptr %82, align 8
  %84 = and i32 %83, 4
  %.not58 = icmp eq i32 %84, 0
  br i1 %.not58, label %85, label %.sink.split

.sink.split:                                      ; preds = %80, %16, %20
  %.039.ph = phi i32 [ 1, %20 ], [ 1, %16 ], [ 0, %80 ]
  call void @refresh_main(ptr noundef null, ptr noundef null) #16
  br label %85

85:                                               ; preds = %.sink.split, %80, %15
  %.039 = phi i32 [ 0, %15 ], [ %.0, %80 ], [ %.039.ph, %.sink.split ]
  call void @llvm.lifetime.end.p0(i64 8, ptr nonnull %5) #16
  call void @llvm.lifetime.end.p0(i64 8, ptr nonnull %4) #16
  ret i32 %.039
}